; Function Attrs: nounwind uwtable
define dso_local i64 @hashTypeGetMinExpire(ptr noundef readonly captures(none) %0, i32 noundef %1) local_unnamed_addr #1 {
  %.not = icmp eq i32 %1, 0
  %3 = load i32, ptr %0, align 8
  %4 = lshr i32 %3, 4
  %5 = and i32 %4, 15
  br i1 %.not, label %6, label %25

6:                                                ; preds = %2
  switch i32 %5, label %10 [
    i32 11, label %36
    i32 12, label %7
    i32 2, label %11
  ], !prof !55

7:                                                ; preds = %6
  %8 = getelementptr inbounds nuw i8, ptr %0, i64 8
  %9 = load ptr, ptr %8, align 8, !tbaa !10
  br label %15

10:                                               ; preds = %6
  tail call void @_serverAssert(ptr noundef nonnull @.str.10, ptr noundef nonnull @.str.2, i32 noundef 1974) #16
  tail call void @abort() #17
  unreachable

11:                                               ; preds = %6
  %12 = getelementptr inbounds nuw i8, ptr %0, i64 8
  %13 = load ptr, ptr %12, align 8, !tbaa !10
  %.val = load ptr, ptr %13, align 8, !tbaa !56
  %.not31 = icmp eq ptr %.val, @mstrHashDictTypeWithHFE
  %14 = getelementptr inbounds nuw i8, ptr %13, i64 56
  br i1 %.not31, label %15, label %36

15:                                               ; preds = %7, %11
  %.121 = phi ptr [ %9, %7 ], [ %14, %11 ]
  %16 = getelementptr inbounds nuw i8, ptr %.121, i64 6
  %17 = load i16, ptr %16, align 2
  %18 = and i16 %17, 256
  %.not26 = icmp eq i16 %18, 0
  br i1 %.not26, label %19, label %36

19:                                               ; preds = %15
  %.121.val = load i32, ptr %.121, align 8, !tbaa !69
  %20 = getelementptr i8, ptr %.121, i64 4
  %.121.val28 = load i16, ptr %20, align 4, !tbaa !70
  %21 = zext i16 %.121.val28 to i64
  %22 = shl nuw nsw i64 %21, 32
  %23 = zext i32 %.121.val to i64
  %24 = or disjoint i64 %22, %23
  br label %36

25:                                               ; preds = %2
  switch i32 %5, label %28 [
    i32 11, label %36
    i32 12, label %26
    i32 2, label %29
  ], !prof !55

26:                                               ; preds = %25
  %27 = tail call fastcc i64 @listpackExGetMinExpire(ptr noundef nonnull %0)
  br label %36

28:                                               ; preds = %25
  tail call void @_serverAssert(ptr noundef nonnull @.str.10, ptr noundef nonnull @.str.2, i32 noundef 1997) #16
  tail call void @abort() #17
  unreachable

29:                                               ; preds = %25
  %30 = getelementptr inbounds nuw i8, ptr %0, i64 8
  %31 = load ptr, ptr %30, align 8, !tbaa !10
  %.val29 = load ptr, ptr %31, align 8, !tbaa !56
  %.not30 = icmp eq ptr %.val29, @mstrHashDictTypeWithHFE
  br i1 %.not30, label %32, label %36

32:                                               ; preds = %29
  %33 = getelementptr inbounds nuw i8, ptr %31, i64 72
  %34 = load ptr, ptr %33, align 8, !tbaa !58
  %35 = tail call i64 @ebGetNextTimeToExpire(ptr noundef %34, ptr noundef nonnull @hashFieldExpireBucketsType) #16
  br label %36

36:                                               ; preds = %32, %29, %25, %15, %6, %11, %26, %19
  %.0 = phi i64 [ %27, %26 ], [ %24, %19 ], [ 281474976710656, %11 ], [ 281474976710656, %6 ], [ 281474976710656, %15 ], [ 281474976710656, %25 ], [ %35, %32 ], [ 281474976710656, %29 ]
  ret i64 %.0
}